target datalayout = "e-m:e-p270:32:32-p271:32:32-p272:64:64-i64:64-i128:128-f80:128-n8:16:32:64-S128"
target triple = "x86_64-pc-linux-gnu"

%struct.SDL_AtomicInt = type { i32 }
%struct.SDL_Window = type { i32, ptr, ptr, i32, i32, i32, i32, i32, i32, i32, i32, float, float, i32, i32, i64, i64, float, i8, i8, i32, i32, %struct.SDL_Rect, %struct.SDL_Rect, %struct.SDL_Rect, i8, i8, i8, %struct.SDL_DisplayMode, %struct.SDL_DisplayMode, %struct.SDL_HDROutputProperties, float, ptr, i8, i8, i8, i8, i8, i8, i8, i8, i8, i32, i32, i32, i32, %struct.SDL_Rect, i32, i8, %struct.SDL_Rect, i32, %struct.SDL_Rect, ptr, ptr, i32, float, i32, i32, ptr, ptr, ptr, ptr, ptr, ptr, ptr, ptr, ptr }
%struct.SDL_DisplayMode = type { i32, i32, i32, i32, float, float, i32, i32, ptr }
%struct.SDL_HDROutputProperties = type { float, float }
%struct.SDL_Rect = type { i32, i32, i32, i32 }
%struct.SDL_VideoDevice = type { ptr, ptr, ptr, ptr, ptr, ptr, ptr, ptr, ptr, ptr, ptr, ptr, ptr, ptr, ptr, ptr, ptr, ptr, ptr, ptr, ptr, ptr, ptr, ptr, ptr, ptr, ptr, ptr, ptr, ptr, ptr, ptr, ptr, ptr, ptr, ptr, ptr, ptr, ptr, ptr, ptr, ptr, ptr, ptr, ptr, ptr, ptr, ptr, ptr, ptr, ptr, ptr, ptr, ptr, ptr, ptr, ptr, ptr, ptr, ptr, ptr, ptr, ptr, ptr, ptr, ptr, ptr, ptr, ptr, ptr, ptr, ptr, ptr, ptr, ptr, ptr, ptr, ptr, ptr, ptr, ptr, ptr, ptr, ptr, ptr, ptr, ptr, ptr, ptr, ptr, ptr, ptr, ptr, ptr, ptr, ptr, ptr, i64, i8, i8, i8, ptr, i32, ptr, %struct.SDL_Rect, ptr, ptr, i32, ptr, ptr, ptr, ptr, i64, ptr, i8, i32, i32, %struct.anon, ptr, ptr, ptr, ptr, ptr, ptr, %struct.SDL_AtomicInt, %struct.SDL_AtomicInt, i8, %struct.anon.0, ptr, ptr, ptr, ptr, ptr }
%struct.anon = type { i32, i32, i32, i32, i32, i32, i32, i32, i32, i32, i32, i32, i32, i32, i32, i32, i32, i32, i32, i32, i32, i32, i32, i32, i32, i32, i32, i32, i32, [256 x i8], ptr }
%struct.anon.0 = type { ptr, ptr, i32, [256 x i8], ptr }

@.str.1 = private unnamed_addr constant [41 x i8] c"Video subsystem has not been initialized\00", align 1
@_this = internal global ptr null, align 8
@.str.20 = private unnamed_addr constant [15 x i8] c"Invalid window\00", align 1
@.str.22 = private unnamed_addr constant [35 x i8] c"Operation invalid on popup windows\00", align 1
@syncHint = internal global i8 0, align 1

; Function Attrs: nounwind uwtable
define hidden zeroext i1 @SDL_SyncWindow_REAL(ptr noundef %0) #0 {
  %2 = alloca i1, align 1
  %3 = alloca ptr, align 8
  store ptr %0, ptr %3, align 8
  %4 = load ptr, ptr @_this, align 8
  %5 = icmp ne ptr %4, null
  br i1 %5, label %8, label %6

6:                                                ; preds = %1
  %7 = call zeroext i1 @SDL_UninitializedVideo()
  store i1 false, ptr %2, align 1
  br label %26

8:                                                ; preds = %1
  %9 = load ptr, ptr %3, align 8
  %10 = call zeroext i1 @SDL_ObjectValid(ptr noundef %9, i32 noundef 1)
  br i1 %10, label %13, label %11

11:                                               ; preds = %8
  %12 = call zeroext i1 (ptr, ...) @SDL_SetError_REAL(ptr noundef @.str.20)
  store i1 false, ptr %2, align 1
  br label %26

13:                                               ; preds = %8
  %14 = load ptr, ptr @_this, align 8
  %15 = getelementptr inbounds nuw %struct.SDL_VideoDevice, ptr %14, i32 0, i32 49
  %16 = load ptr, ptr %15, align 8
  %17 = icmp ne ptr %16, null
  br i1 %17, label %18, label %25

18:                                               ; preds = %13
  %19 = load ptr, ptr @_this, align 8
  %20 = getelementptr inbounds nuw %struct.SDL_VideoDevice, ptr %19, i32 0, i32 49
  %21 = load ptr, ptr %20, align 8
  %22 = load ptr, ptr @_this, align 8
  %23 = load ptr, ptr %3, align 8
  %24 = call zeroext i1 %21(ptr noundef %22, ptr noundef %23)
  store i1 %24, ptr %2, align 1
  br label %26

25:                                               ; preds = %13
  store i1 true, ptr %2, align 1
  br label %26

26:                                               ; preds = %25, %18, %11, %6
  %27 = load i1, ptr %2, align 1
  ret i1 %27
}

; Function Attrs: nounwind uwtable
define internal void @SDL_SyncIfRequired(ptr noundef %0) #0 {
  %2 = alloca ptr, align 8
  store ptr %0, ptr %2, align 8
  %3 = load i8, ptr @syncHint, align 1, !range !5, !noundef !6
  %4 = trunc i8 %3 to i1
  br i1 %4, label %5, label %8

5:                                                ; preds = %1
  %6 = load ptr, ptr %2, align 8
  %7 = call zeroext i1 @SDL_SyncWindow_REAL(ptr noundef %6)
  br label %8

8:                                                ; preds = %5, %1
  ret void
}

; Function Attrs: nounwind uwtable
define hidden zeroext i1 @SDL_UninitializedVideo() #0 {
  %1 = call zeroext i1 (ptr, ...) @SDL_SetError_REAL(ptr noundef @.str.1)
  ret i1 %1
}

; Function Attrs: nounwind uwtable
define hidden zeroext i1 @SDL_SetWindowFullscreen_REAL(ptr noundef %0, i1 noundef zeroext %1) #0 {
  %3 = alloca i1, align 1
  %4 = alloca ptr, align 8
  %5 = alloca i8, align 1
  %6 = alloca i8, align 1
  %7 = alloca i32, align 4
  store ptr %0, ptr %4, align 8
  %8 = zext i1 %1 to i8
  store i8 %8, ptr %5, align 1
  call void @llvm.lifetime.start.p0(i64 1, ptr %6) #10
  %9 = load ptr, ptr @_this, align 8
  %10 = icmp ne ptr %9, null
  br i1 %10, label %13, label %11

11:                                               ; preds = %2
  %12 = call zeroext i1 @SDL_UninitializedVideo()
  store i1 false, ptr %3, align 1
  store i32 1, ptr %7, align 4
  br label %77

13:                                               ; preds = %2
  %14 = load ptr, ptr %4, align 8
  %15 = call zeroext i1 @SDL_ObjectValid(ptr noundef %14, i32 noundef 1)
  br i1 %15, label %18, label %16

16:                                               ; preds = %13
  %17 = call zeroext i1 (ptr, ...) @SDL_SetError_REAL(ptr noundef @.str.20)
  store i1 false, ptr %3, align 1
  store i32 1, ptr %7, align 4
  br label %77

18:                                               ; preds = %13
  %19 = load ptr, ptr %4, align 8
  %20 = getelementptr inbounds nuw %struct.SDL_Window, ptr %19, i32 0, i32 15
  %21 = load i64, ptr %20, align 8
  %22 = and i64 %21, 786432
  %23 = icmp ne i64 %22, 0
  br i1 %23, label %24, label %26

24:                                               ; preds = %18
  %25 = call zeroext i1 (ptr, ...) @SDL_SetError_REAL(ptr noundef @.str.22)
  store i1 false, ptr %3, align 1
  store i32 1, ptr %7, align 4
  br label %77

26:                                               ; preds = %18
  %27 = load ptr, ptr %4, align 8
  %28 = getelementptr inbounds nuw %struct.SDL_Window, ptr %27, i32 0, i32 15
  %29 = load i64, ptr %28, align 8
  %30 = and i64 %29, 8
  %31 = icmp ne i64 %30, 0
  br i1 %31, label %32, label %46

32:                                               ; preds = %26
  %33 = load i8, ptr %5, align 1, !range !5, !noundef !6
  %34 = trunc i8 %33 to i1
  br i1 %34, label %35, label %40

35:                                               ; preds = %32
  %36 = load ptr, ptr %4, align 8
  %37 = getelementptr inbounds nuw %struct.SDL_Window, ptr %36, i32 0, i32 16
  %38 = load i64, ptr %37, align 8
  %39 = or i64 %38, 1
  store i64 %39, ptr %37, align 8
  br label %45

40:                                               ; preds = %32
  %41 = load ptr, ptr %4, align 8
  %42 = getelementptr inbounds nuw %struct.SDL_Window, ptr %41, i32 0, i32 16
  %43 = load i64, ptr %42, align 8
  %44 = and i64 %43, -2
  store i64 %44, ptr %42, align 8
  br label %45

45:                                               ; preds = %40, %35
  store i1 true, ptr %3, align 1
  store i32 1, ptr %7, align 4
  br label %77

46:                                               ; preds = %26
  %47 = load i8, ptr %5, align 1, !range !5, !noundef !6
  %48 = trunc i8 %47 to i1
  br i1 %48, label %49, label %54

49:                                               ; preds = %46
  %50 = load ptr, ptr %4, align 8
  %51 = getelementptr inbounds nuw %struct.SDL_Window, ptr %50, i32 0, i32 29
  %52 = load ptr, ptr %4, align 8
  %53 = getelementptr inbounds nuw %struct.SDL_Window, ptr %52, i32 0, i32 28
  call void @llvm.memcpy.p0.p0.i64(ptr align 8 %51, ptr align 8 %53, i64 40, i1 false)
  br label %54

54:                                               ; preds = %49, %46
  %55 = load ptr, ptr %4, align 8
  %56 = load i8, ptr %5, align 1, !range !5, !noundef !6
  %57 = trunc i8 %56 to i1
  %58 = select i1 %57, i32 1, i32 0
  %59 = call zeroext i1 @SDL_UpdateFullscreenMode(ptr noundef %55, i32 noundef %58, i1 noundef zeroext true)
  %60 = zext i1 %59 to i8
  store i8 %60, ptr %6, align 1
  %61 = load i8, ptr %5, align 1, !range !5, !noundef !6
  %62 = trunc i8 %61 to i1
  br i1 %62, label %63, label %66

63:                                               ; preds = %54
  %64 = load i8, ptr %6, align 1, !range !5, !noundef !6
  %65 = trunc i8 %64 to i1
  br i1 %65, label %69, label %66

66:                                               ; preds = %63, %54
  %67 = load ptr, ptr %4, align 8
  %68 = getelementptr inbounds nuw %struct.SDL_Window, ptr %67, i32 0, i32 29
  call void @llvm.memset.p0.i64(ptr align 8 %68, i8 0, i64 40, i1 false)
  br label %69

69:                                               ; preds = %66, %63
  %70 = load i8, ptr %6, align 1, !range !5, !noundef !6
  %71 = trunc i8 %70 to i1
  br i1 %71, label %72, label %74

72:                                               ; preds = %69
  %73 = load ptr, ptr %4, align 8
  call void @SDL_SyncIfRequired(ptr noundef %73)
  br label %74

74:                                               ; preds = %72, %69
  %75 = load i8, ptr %6, align 1, !range !5, !noundef !6
  %76 = trunc i8 %75 to i1
  store i1 %76, ptr %3, align 1
  store i32 1, ptr %7, align 4
  br label %77

77:                                               ; preds = %74, %45, %24, %16, %11
  call void @llvm.lifetime.end.p0(i64 1, ptr %6) #10
  %78 = load i1, ptr %3, align 1
  ret i1 %78
}