; Function Attrs: nounwind uwtable
define hidden noundef zeroext i1 @SDL_SetWindowFullscreen_REAL(ptr noundef %0, i1 noundef zeroext %1) local_unnamed_addr #0 {
  %3 = load ptr, ptr @_this, align 8
  %.not = icmp eq ptr %3, null
  br i1 %.not, label %4, label %6

4:                                                ; preds = %2
  %5 = tail call zeroext i1 (ptr, ...) @SDL_SetError_REAL(ptr noundef nonnull @.str.1) #19
  br label %SDL_SyncIfRequired.exit

6:                                                ; preds = %2
  %7 = tail call zeroext i1 @SDL_ObjectValid(ptr noundef %0, i32 noundef 1) #19
  br i1 %7, label %10, label %8

8:                                                ; preds = %6
  %9 = tail call zeroext i1 (ptr, ...) @SDL_SetError_REAL(ptr noundef nonnull @.str.20) #19
  br label %SDL_SyncIfRequired.exit

10:                                               ; preds = %6
  %11 = getelementptr inbounds nuw i8, ptr %0, i64 72
  %12 = load i64, ptr %11, align 8
  %13 = and i64 %12, 786432
  %.not18 = icmp eq i64 %13, 0
  br i1 %.not18, label %16, label %14

14:                                               ; preds = %10
  %15 = tail call zeroext i1 (ptr, ...) @SDL_SetError_REAL(ptr noundef nonnull @.str.22) #19
  br label %SDL_SyncIfRequired.exit

16:                                               ; preds = %10
  %17 = and i64 %12, 8
  %.not19 = icmp eq i64 %17, 0
  br i1 %.not19, label %25, label %18

18:                                               ; preds = %16
  %19 = getelementptr inbounds nuw i8, ptr %0, i64 80
  %20 = load i64, ptr %19, align 8
  br i1 %1, label %21, label %23

21:                                               ; preds = %18
  %22 = or i64 %20, 1
  store i64 %22, ptr %19, align 8
  br label %SDL_SyncIfRequired.exit

23:                                               ; preds = %18
  %24 = and i64 %20, -2
  store i64 %24, ptr %19, align 8
  br label %SDL_SyncIfRequired.exit

25:                                               ; preds = %16
  br i1 %1, label %28, label %.thread

.thread:                                          ; preds = %25
  %26 = tail call zeroext i1 @SDL_UpdateFullscreenMode(ptr noundef nonnull %0, i32 noundef 0, i1 noundef zeroext true)
  %27 = getelementptr inbounds nuw i8, ptr %0, i64 200
  tail call void @llvm.memset.p0.i64(ptr noundef nonnull align 8 dereferenceable(40) %27, i8 0, i64 40, i1 false)
  br i1 %26, label %33, label %SDL_SyncIfRequired.exit

28:                                               ; preds = %25
  %29 = getelementptr inbounds nuw i8, ptr %0, i64 200
  %30 = getelementptr inbounds nuw i8, ptr %0, i64 160
  tail call void @llvm.memcpy.p0.p0.i64(ptr noundef nonnull align 8 dereferenceable(40) %29, ptr noundef nonnull align 8 dereferenceable(40) %30, i64 40, i1 false)
  %31 = tail call zeroext i1 @SDL_UpdateFullscreenMode(ptr noundef nonnull %0, i32 noundef 1, i1 noundef zeroext true)
  br i1 %31, label %33, label %32

32:                                               ; preds = %28
  tail call void @llvm.memset.p0.i64(ptr noundef nonnull align 8 dereferenceable(40) %29, i8 0, i64 40, i1 false)
  br label %SDL_SyncIfRequired.exit

33:                                               ; preds = %28, %.thread
  %34 = load i8, ptr @syncHint, align 1, !range !6, !noundef !7
  %35 = trunc nuw i8 %34 to i1
  br i1 %35, label %36, label %SDL_SyncIfRequired.exit

36:                                               ; preds = %33
  %37 = load ptr, ptr @_this, align 8
  %.not.i.i = icmp eq ptr %37, null
  br i1 %.not.i.i, label %38, label %40

38:                                               ; preds = %36
  %39 = tail call zeroext i1 (ptr, ...) @SDL_SetError_REAL(ptr noundef nonnull @.str.1) #19
  br label %SDL_SyncIfRequired.exit

40:                                               ; preds = %36
  %41 = tail call zeroext i1 @SDL_ObjectValid(ptr noundef nonnull %0, i32 noundef 1) #19
  br i1 %41, label %44, label %42

42:                                               ; preds = %40
  %43 = tail call zeroext i1 (ptr, ...) @SDL_SetError_REAL(ptr noundef nonnull @.str.20) #19
  br label %SDL_SyncIfRequired.exit

44:                                               ; preds = %40
  %45 = load ptr, ptr @_this, align 8
  %46 = getelementptr inbounds nuw i8, ptr %45, i64 392
  %47 = load ptr, ptr %46, align 8
  %.not4.i.i = icmp eq ptr %47, null
  br i1 %.not4.i.i, label %SDL_SyncIfRequired.exit, label %48

48:                                               ; preds = %44
  %49 = tail call zeroext i1 %47(ptr noundef nonnull %45, ptr noundef nonnull %0) #19
  br label %SDL_SyncIfRequired.exit

SDL_SyncIfRequired.exit:                          ; preds = %32, %.thread, %48, %44, %42, %38, %33, %21, %23, %14, %8, %4
  %.0 = phi i1 [ false, %14 ], [ false, %8 ], [ false, %4 ], [ true, %23 ], [ true, %21 ], [ false, %32 ], [ true, %33 ], [ true, %38 ], [ true, %42 ], [ true, %44 ], [ true, %48 ], [ false, %.thread ]
  ret i1 %.0
}